; Function Attrs: null_pointer_is_valid sspstrong uwtable
define internal fastcc range(i32 3, 65540) i32 @dissect_query_afp_map_name(ptr noundef %0, ptr noundef %1) unnamed_addr #1 {
  %3 = tail call zeroext i8 @tvb_get_uint8(ptr noundef %0, i32 noundef 1)
  %4 = load i32, ptr @hf_afp_map_name_type, align 4
  %5 = tail call ptr @proto_tree_add_item(ptr noundef %1, i32 noundef %4, ptr noundef %0, i32 noundef 1, i32 noundef 1, i32 noundef 0)
  %.off = add i8 %3, -5
  %switch = icmp ult i8 %.off, 2
  br i1 %switch, label %6, label %9

6:                                                ; preds = %2
  %7 = tail call zeroext i16 @tvb_get_ntohs(ptr noundef %0, i32 noundef 2)
  %8 = zext i16 %7 to i32
  br label %12

9:                                                ; preds = %2
  %10 = tail call zeroext i8 @tvb_get_uint8(ptr noundef %0, i32 noundef 2)
  %11 = zext i8 %10 to i32
  br label %12

12:                                               ; preds = %9, %6
  %.018 = phi i32 [ %11, %9 ], [ %8, %6 ]
  %.0 = phi i32 [ 1, %9 ], [ 2, %6 ]
  %13 = load i32, ptr @hf_afp_map_name, align 4
  %14 = tail call ptr @proto_tree_add_item(ptr noundef %1, i32 noundef %13, ptr noundef %0, i32 noundef 2, i32 noundef %.0, i32 noundef 0)
  %15 = add nuw nsw i32 %.018, 2
  %16 = add nuw nsw i32 %15, %.0
  ret i32 %16
}